; Function Attrs: mustprogress nofree norecurse nosync nounwind willreturn memory(argmem: readwrite) uwtable
define void @_ZN10open_spiel6spades11SpadesState15ApplyDealActionEi(ptr nocapture noundef nonnull align 8 dereferenceable(897) %0, i32 noundef %1) local_unnamed_addr #7 align 2 {
  %3 = getelementptr inbounds nuw i8, ptr %0, i64 32
  %4 = getelementptr inbounds i8, ptr %0, i64 40
  %5 = load ptr, ptr %4, align 8
  %6 = load ptr, ptr %3, align 8
  %7 = ptrtoint ptr %5 to i64
  %8 = ptrtoint ptr %6 to i64
  %9 = sub i64 %7, %8
  %10 = getelementptr inbounds nuw i8, ptr %0, i64 424
  %11 = sext i32 %1 to i64
  %12 = getelementptr inbounds [52 x %"class.absl::debian2::optional"], ptr %10, i64 0, i64 %11
  %13 = load i8, ptr %12, align 8
  %14 = trunc i8 %13 to i1
  br i1 %14, label %_ZN4absl7debian28optionalIiEaSImvEERS2_OT_.exit, label %15

15:                                               ; preds = %2
  store i8 1, ptr %12, align 8
  br label %_ZN4absl7debian28optionalIiEaSImvEERS2_OT_.exit

_ZN4absl7debian28optionalIiEaSImvEERS2_OT_.exit:  ; preds = %2, %15
  %16 = trunc i64 %9 to i32
  %17 = lshr i32 %16, 4
  %.sink.i.i = and i32 %17, 3
  %18 = getelementptr inbounds nuw i8, ptr %12, i64 4
  store i32 %.sink.i.i, ptr %18, align 4
  %19 = load ptr, ptr %4, align 8
  %20 = load ptr, ptr %3, align 8
  %21 = ptrtoint ptr %19 to i64
  %22 = ptrtoint ptr %20 to i64
  %23 = sub i64 %21, %22
  %24 = icmp eq i64 %23, 816
  br i1 %24, label %25, label %28

25:                                               ; preds = %_ZN4absl7debian28optionalIiEaSImvEERS2_OT_.exit
  %26 = getelementptr inbounds nuw i8, ptr %0, i64 116
  store i32 1, ptr %26, align 4
  %27 = getelementptr inbounds nuw i8, ptr %0, i64 112
  store i32 0, ptr %27, align 8
  br label %28

28:                                               ; preds = %25, %_ZN4absl7debian28optionalIiEaSImvEERS2_OT_.exit
  ret void
}